target datalayout = "e-m:e-p270:32:32-p271:32:32-p272:64:64-i64:64-i128:128-f80:128-n8:16:32:64-S128"
target triple = "x86_64-pc-linux-gnu"

%struct.strbuf = type { i64, i64, ptr }

@.str = private unnamed_addr constant [3 x i8] c"'!\00", align 1
@.str.1 = private unnamed_addr constant [3 x i8] c"'\\\00", align 1

; Function Attrs: inlinehint nounwind uwtable
define internal i64 @strbuf_avail(ptr noundef %0) #3 {
  %2 = alloca ptr, align 8
  store ptr %0, ptr %2, align 8, !tbaa !4
  %3 = load ptr, ptr %2, align 8, !tbaa !4
  %4 = getelementptr inbounds nuw %struct.strbuf, ptr %3, i32 0, i32 0
  %5 = load i64, ptr %4, align 8, !tbaa !37
  %6 = icmp ne i64 %5, 0
  br i1 %6, label %7, label %16

7:                                                ; preds = %1
  %8 = load ptr, ptr %2, align 8, !tbaa !4
  %9 = getelementptr inbounds nuw %struct.strbuf, ptr %8, i32 0, i32 0
  %10 = load i64, ptr %9, align 8, !tbaa !37
  %11 = load ptr, ptr %2, align 8, !tbaa !4
  %12 = getelementptr inbounds nuw %struct.strbuf, ptr %11, i32 0, i32 1
  %13 = load i64, ptr %12, align 8, !tbaa !21
  %14 = sub i64 %10, %13
  %15 = sub i64 %14, 1
  br label %17

16:                                               ; preds = %1
  br label %17

17:                                               ; preds = %16, %7
  %18 = phi i64 [ %15, %7 ], [ 0, %16 ]
  ret i64 %18
}

; Function Attrs: inlinehint nounwind uwtable
define internal void @strbuf_addstr(ptr noundef %0, ptr noundef %1) #3 {
  %3 = alloca ptr, align 8
  %4 = alloca ptr, align 8
  store ptr %0, ptr %3, align 8, !tbaa !4
  store ptr %1, ptr %4, align 8, !tbaa !9
  %5 = load ptr, ptr %3, align 8, !tbaa !4
  %6 = load ptr, ptr %4, align 8, !tbaa !9
  %7 = load ptr, ptr %4, align 8, !tbaa !9
  %8 = call i64 @strlen(ptr noundef %7) #10
  call void @strbuf_add(ptr noundef %5, ptr noundef %6, i64 noundef %8)
  ret void
}

; Function Attrs: inlinehint nounwind uwtable
define internal i32 @need_bs_quote(i8 noundef signext %0) #3 {
  %2 = alloca i8, align 1
  store i8 %0, ptr %2, align 1, !tbaa !14
  %3 = load i8, ptr %2, align 1, !tbaa !14
  %4 = sext i8 %3 to i32
  %5 = icmp eq i32 %4, 39
  br i1 %5, label %10, label %6

6:                                                ; preds = %1
  %7 = load i8, ptr %2, align 1, !tbaa !14
  %8 = sext i8 %7 to i32
  %9 = icmp eq i32 %8, 33
  br label %10

10:                                               ; preds = %6, %1
  %11 = phi i1 [ true, %1 ], [ %9, %6 ]
  %12 = zext i1 %11 to i32
  ret i32 %12
}

; Function Attrs: inlinehint nounwind uwtable
define internal void @strbuf_addch(ptr noundef %0, i32 noundef %1) #3 {
  %3 = alloca ptr, align 8
  %4 = alloca i32, align 4
  store ptr %0, ptr %3, align 8, !tbaa !4
  store i32 %1, ptr %4, align 4, !tbaa !19
  %5 = load ptr, ptr %3, align 8, !tbaa !4
  %6 = call i64 @strbuf_avail(ptr noundef %5)
  %7 = icmp ne i64 %6, 0
  br i1 %7, label %10, label %8

8:                                                ; preds = %2
  %9 = load ptr, ptr %3, align 8, !tbaa !4
  call void @strbuf_grow(ptr noundef %9, i64 noundef 1)
  br label %10

10:                                               ; preds = %8, %2
  %11 = load i32, ptr %4, align 4, !tbaa !19
  %12 = trunc i32 %11 to i8
  %13 = load ptr, ptr %3, align 8, !tbaa !4
  %14 = getelementptr inbounds nuw %struct.strbuf, ptr %13, i32 0, i32 2
  %15 = load ptr, ptr %14, align 8, !tbaa !11
  %16 = load ptr, ptr %3, align 8, !tbaa !4
  %17 = getelementptr inbounds nuw %struct.strbuf, ptr %16, i32 0, i32 1
  %18 = load i64, ptr %17, align 8, !tbaa !21
  %19 = add i64 %18, 1
  store i64 %19, ptr %17, align 8, !tbaa !21
  %20 = getelementptr inbounds nuw i8, ptr %15, i64 %18
  store i8 %12, ptr %20, align 1, !tbaa !14
  %21 = load ptr, ptr %3, align 8, !tbaa !4
  %22 = getelementptr inbounds nuw %struct.strbuf, ptr %21, i32 0, i32 2
  %23 = load ptr, ptr %22, align 8, !tbaa !11
  %24 = load ptr, ptr %3, align 8, !tbaa !4
  %25 = getelementptr inbounds nuw %struct.strbuf, ptr %24, i32 0, i32 1
  %26 = load i64, ptr %25, align 8, !tbaa !21
  %27 = getelementptr inbounds nuw i8, ptr %23, i64 %26
  store i8 0, ptr %27, align 1, !tbaa !14
  ret void
}

; Function Attrs: nounwind uwtable
define dso_local void @sq_quote_buf(ptr noundef %0, ptr noundef %1) #0 {
  %3 = alloca ptr, align 8
  %4 = alloca ptr, align 8
  %5 = alloca ptr, align 8
  %6 = alloca i64, align 8
  store ptr %0, ptr %3, align 8, !tbaa !4
  store ptr %1, ptr %4, align 8, !tbaa !9
  call void @llvm.lifetime.start.p0(i64 8, ptr %5) #9
  store ptr null, ptr %5, align 8, !tbaa !9
  %7 = load ptr, ptr %3, align 8, !tbaa !4
  %8 = getelementptr inbounds nuw %struct.strbuf, ptr %7, i32 0, i32 2
  %9 = load ptr, ptr %8, align 8, !tbaa !11
  %10 = load ptr, ptr %4, align 8, !tbaa !9
  %11 = icmp eq ptr %9, %10
  br i1 %11, label %12, label %15

12:                                               ; preds = %2
  %13 = load ptr, ptr %3, align 8, !tbaa !4
  %14 = call ptr @strbuf_detach(ptr noundef %13, ptr noundef null)
  store ptr %14, ptr %5, align 8, !tbaa !9
  br label %15

15:                                               ; preds = %12, %2
  %16 = load ptr, ptr %3, align 8, !tbaa !4
  call void @strbuf_addch(ptr noundef %16, i32 noundef 39)
  br label %17

17:                                               ; preds = %43, %15
  %18 = load ptr, ptr %4, align 8, !tbaa !9
  %19 = load i8, ptr %18, align 1, !tbaa !14
  %20 = icmp ne i8 %19, 0
  br i1 %20, label %21, label %44

21:                                               ; preds = %17
  call void @llvm.lifetime.start.p0(i64 8, ptr %6) #9
  %22 = load ptr, ptr %4, align 8, !tbaa !9
  %23 = call i64 @strcspn(ptr noundef %22, ptr noundef @.str) #10
  store i64 %23, ptr %6, align 8, !tbaa !15
  %24 = load ptr, ptr %3, align 8, !tbaa !4
  %25 = load ptr, ptr %4, align 8, !tbaa !9
  %26 = load i64, ptr %6, align 8, !tbaa !15
  call void @strbuf_add(ptr noundef %24, ptr noundef %25, i64 noundef %26)
  %27 = load i64, ptr %6, align 8, !tbaa !15
  %28 = load ptr, ptr %4, align 8, !tbaa !9
  %29 = getelementptr inbounds nuw i8, ptr %28, i64 %27
  store ptr %29, ptr %4, align 8, !tbaa !9
  br label %30

30:                                               ; preds = %35, %21
  %31 = load ptr, ptr %4, align 8, !tbaa !9
  %32 = load i8, ptr %31, align 1, !tbaa !14
  %33 = call i32 @need_bs_quote(i8 noundef signext %32)
  %34 = icmp ne i32 %33, 0
  br i1 %34, label %35, label %43

35:                                               ; preds = %30
  %36 = load ptr, ptr %3, align 8, !tbaa !4
  call void @strbuf_addstr(ptr noundef %36, ptr noundef @.str.1)
  %37 = load ptr, ptr %3, align 8, !tbaa !4
  %38 = load ptr, ptr %4, align 8, !tbaa !9
  %39 = getelementptr inbounds nuw i8, ptr %38, i32 1
  store ptr %39, ptr %4, align 8, !tbaa !9
  %40 = load i8, ptr %38, align 1, !tbaa !14
  %41 = sext i8 %40 to i32
  call void @strbuf_addch(ptr noundef %37, i32 noundef %41)
  %42 = load ptr, ptr %3, align 8, !tbaa !4
  call void @strbuf_addch(ptr noundef %42, i32 noundef 39)
  br label %30, !llvm.loop !16

43:                                               ; preds = %30
  call void @llvm.lifetime.end.p0(i64 8, ptr %6) #9
  br label %17, !llvm.loop !18

44:                                               ; preds = %17
  %45 = load ptr, ptr %3, align 8, !tbaa !4
  call void @strbuf_addch(ptr noundef %45, i32 noundef 39)
  %46 = load ptr, ptr %5, align 8, !tbaa !9
  call void @free(ptr noundef %46) #9
  call void @llvm.lifetime.end.p0(i64 8, ptr %5) #9
  ret void
}