; Function Attrs: nounwind uwtable
define dso_local void @sq_quote_buf(ptr noundef %0, ptr noundef %1) local_unnamed_addr #0 {
  %3 = getelementptr inbounds nuw i8, ptr %0, i64 16
  %4 = load ptr, ptr %3, align 8, !tbaa !4
  %5 = icmp eq ptr %4, %1
  br i1 %5, label %6, label %8

6:                                                ; preds = %2
  %7 = tail call ptr @strbuf_detach(ptr noundef nonnull %0, ptr noundef null) #12
  br label %8

8:                                                ; preds = %6, %2
  %.017 = phi ptr [ %7, %6 ], [ null, %2 ]
  %9 = load i64, ptr %0, align 8, !tbaa !11
  %.not.i.i = icmp eq i64 %9, 0
  br i1 %.not.i.i, label %strbuf_avail.exit.thread.i, label %strbuf_avail.exit.i

strbuf_avail.exit.i:                              ; preds = %8
  %10 = getelementptr inbounds nuw i8, ptr %0, i64 8
  %11 = load i64, ptr %10, align 8, !tbaa !12
  %.neg.i = add i64 %11, 1
  %.not.i = icmp eq i64 %9, %.neg.i
  br i1 %.not.i, label %strbuf_avail.exit.thread.i, label %strbuf_addch.exit

strbuf_avail.exit.thread.i:                       ; preds = %strbuf_avail.exit.i, %8
  tail call void @strbuf_grow(ptr noundef nonnull %0, i64 noundef 1) #12
  %.phi.trans.insert.i = getelementptr inbounds nuw i8, ptr %0, i64 8
  %.pre.i = load i64, ptr %.phi.trans.insert.i, align 8, !tbaa !12
  %.pre7.i = add i64 %.pre.i, 1
  br label %strbuf_addch.exit

strbuf_addch.exit:                                ; preds = %strbuf_avail.exit.i, %strbuf_avail.exit.thread.i
  %.pre-phi.i = phi i64 [ %.pre7.i, %strbuf_avail.exit.thread.i ], [ %.neg.i, %strbuf_avail.exit.i ]
  %12 = phi i64 [ %.pre.i, %strbuf_avail.exit.thread.i ], [ %11, %strbuf_avail.exit.i ]
  %13 = load ptr, ptr %3, align 8, !tbaa !4
  %14 = getelementptr inbounds nuw i8, ptr %0, i64 8
  store i64 %.pre-phi.i, ptr %14, align 8, !tbaa !12
  %15 = getelementptr inbounds nuw i8, ptr %13, i64 %12
  store i8 39, ptr %15, align 1, !tbaa !13
  %16 = load ptr, ptr %3, align 8, !tbaa !4
  %17 = load i64, ptr %14, align 8, !tbaa !12
  %18 = getelementptr inbounds nuw i8, ptr %16, i64 %17
  store i8 0, ptr %18, align 1, !tbaa !13
  %19 = load i8, ptr %1, align 1, !tbaa !13
  %.not52 = icmp eq i8 %19, 0
  br i1 %.not52, label %._crit_edge, label %.lr.ph

.lr.ph:                                           ; preds = %22, %strbuf_addch.exit
  %.053 = phi ptr [ %1, %strbuf_addch.exit ], [ %.1, %22 ]
  %20 = tail call i64 @strcspn(ptr noundef nonnull %.053, ptr noundef nonnull @.str) #13
  tail call void @strbuf_add(ptr noundef nonnull %0, ptr noundef nonnull %.053, i64 noundef %20) #12
  %21 = getelementptr inbounds nuw i8, ptr %.053, i64 %20
  br label %22

22:                                               ; preds = %strbuf_addch.exit38, %.lr.ph
  %.1 = phi ptr [ %21, %.lr.ph ], [ %25, %strbuf_addch.exit38 ]
  %23 = load i8, ptr %.1, align 1, !tbaa !13
  switch i8 %23, label %.lr.ph [
    i8 39, label %24
    i8 33, label %24
    i8 0, label %._crit_edge
  ]

24:                                               ; preds = %22, %22
  tail call void @strbuf_add(ptr noundef nonnull %0, ptr noundef nonnull @.str.1, i64 noundef 2) #12
  %25 = getelementptr inbounds nuw i8, ptr %.1, i64 1
  %26 = load i8, ptr %.1, align 1, !tbaa !13
  %27 = load i64, ptr %0, align 8, !tbaa !11
  %.not.i.i19 = icmp eq i64 %27, 0
  br i1 %.not.i.i19, label %strbuf_avail.exit.thread.i24, label %strbuf_avail.exit.i20

strbuf_avail.exit.i20:                            ; preds = %24
  %28 = load i64, ptr %14, align 8, !tbaa !12
  %.neg.i21 = add i64 %28, 1
  %.not.i22 = icmp eq i64 %27, %.neg.i21
  br i1 %.not.i22, label %strbuf_avail.exit.thread.i24, label %strbuf_addch.exit28

strbuf_avail.exit.thread.i24:                     ; preds = %strbuf_avail.exit.i20, %24
  tail call void @strbuf_grow(ptr noundef nonnull %0, i64 noundef 1) #12
  %.pre.i26 = load i64, ptr %14, align 8, !tbaa !12
  %.pre7.i27 = add i64 %.pre.i26, 1
  br label %strbuf_addch.exit28

strbuf_addch.exit28:                              ; preds = %strbuf_avail.exit.i20, %strbuf_avail.exit.thread.i24
  %.pre-phi.i23 = phi i64 [ %.pre7.i27, %strbuf_avail.exit.thread.i24 ], [ %.neg.i21, %strbuf_avail.exit.i20 ]
  %29 = phi i64 [ %.pre.i26, %strbuf_avail.exit.thread.i24 ], [ %28, %strbuf_avail.exit.i20 ]
  %30 = load ptr, ptr %3, align 8, !tbaa !4
  store i64 %.pre-phi.i23, ptr %14, align 8, !tbaa !12
  %31 = getelementptr inbounds nuw i8, ptr %30, i64 %29
  store i8 %26, ptr %31, align 1, !tbaa !13
  %32 = load ptr, ptr %3, align 8, !tbaa !4
  %33 = load i64, ptr %14, align 8, !tbaa !12
  %34 = getelementptr inbounds nuw i8, ptr %32, i64 %33
  store i8 0, ptr %34, align 1, !tbaa !13
  %35 = load i64, ptr %0, align 8, !tbaa !11
  %.not.i.i29 = icmp eq i64 %35, 0
  br i1 %.not.i.i29, label %strbuf_avail.exit.thread.i34, label %strbuf_avail.exit.i30

strbuf_avail.exit.i30:                            ; preds = %strbuf_addch.exit28
  %36 = load i64, ptr %14, align 8, !tbaa !12
  %.neg.i31 = add i64 %36, 1
  %.not.i32 = icmp eq i64 %35, %.neg.i31
  br i1 %.not.i32, label %strbuf_avail.exit.thread.i34, label %strbuf_addch.exit38

strbuf_avail.exit.thread.i34:                     ; preds = %strbuf_avail.exit.i30, %strbuf_addch.exit28
  tail call void @strbuf_grow(ptr noundef nonnull %0, i64 noundef 1) #12
  %.pre.i36 = load i64, ptr %14, align 8, !tbaa !12
  %.pre7.i37 = add i64 %.pre.i36, 1
  br label %strbuf_addch.exit38

strbuf_addch.exit38:                              ; preds = %strbuf_avail.exit.i30, %strbuf_avail.exit.thread.i34
  %.pre-phi.i33 = phi i64 [ %.pre7.i37, %strbuf_avail.exit.thread.i34 ], [ %.neg.i31, %strbuf_avail.exit.i30 ]
  %37 = phi i64 [ %.pre.i36, %strbuf_avail.exit.thread.i34 ], [ %36, %strbuf_avail.exit.i30 ]
  %38 = load ptr, ptr %3, align 8, !tbaa !4
  store i64 %.pre-phi.i33, ptr %14, align 8, !tbaa !12
  %39 = getelementptr inbounds nuw i8, ptr %38, i64 %37
  store i8 39, ptr %39, align 1, !tbaa !13
  %40 = load ptr, ptr %3, align 8, !tbaa !4
  %41 = load i64, ptr %14, align 8, !tbaa !12
  %42 = getelementptr inbounds nuw i8, ptr %40, i64 %41
  store i8 0, ptr %42, align 1, !tbaa !13
  br label %22, !llvm.loop !14

._crit_edge:                                      ; preds = %22, %strbuf_addch.exit
  %43 = load i64, ptr %0, align 8, !tbaa !11
  %.not.i.i39 = icmp eq i64 %43, 0
  br i1 %.not.i.i39, label %strbuf_avail.exit.thread.i44, label %strbuf_avail.exit.i40

strbuf_avail.exit.i40:                            ; preds = %._crit_edge
  %44 = load i64, ptr %14, align 8, !tbaa !12
  %.neg.i41 = add i64 %44, 1
  %.not.i42 = icmp eq i64 %43, %.neg.i41
  br i1 %.not.i42, label %strbuf_avail.exit.thread.i44, label %strbuf_addch.exit48

strbuf_avail.exit.thread.i44:                     ; preds = %strbuf_avail.exit.i40, %._crit_edge
  tail call void @strbuf_grow(ptr noundef nonnull %0, i64 noundef 1) #12
  %.pre.i46 = load i64, ptr %14, align 8, !tbaa !12
  %.pre7.i47 = add i64 %.pre.i46, 1
  br label %strbuf_addch.exit48

strbuf_addch.exit48:                              ; preds = %strbuf_avail.exit.i40, %strbuf_avail.exit.thread.i44
  %.pre-phi.i43 = phi i64 [ %.pre7.i47, %strbuf_avail.exit.thread.i44 ], [ %.neg.i41, %strbuf_avail.exit.i40 ]
  %45 = phi i64 [ %.pre.i46, %strbuf_avail.exit.thread.i44 ], [ %44, %strbuf_avail.exit.i40 ]
  %46 = load ptr, ptr %3, align 8, !tbaa !4
  store i64 %.pre-phi.i43, ptr %14, align 8, !tbaa !12
  %47 = getelementptr inbounds nuw i8, ptr %46, i64 %45
  store i8 39, ptr %47, align 1, !tbaa !13
  %48 = load ptr, ptr %3, align 8, !tbaa !4
  %49 = load i64, ptr %14, align 8, !tbaa !12
  %50 = getelementptr inbounds nuw i8, ptr %48, i64 %49
  store i8 0, ptr %50, align 1, !tbaa !13
  tail call void @free(ptr noundef %.017) #12
  ret void
}